	.file	"lcd.c"
__SP_H__ = 0x3e
__SP_L__ = 0x3d
__SREG__ = 0x3f
__tmp_reg__ = 0
__zero_reg__ = 1
	.text
.Ltext0:
	.cfi_sections	.debug_frame
	.section	.text.delay_ms,"ax",@progbits
.global	delay_ms
	.type	delay_ms, @function
delay_ms:
.LFB11:
	.file 1 ".././lcd.c"
	.loc 1 30 0
	.cfi_startproc
.LVL0:
/* prologue: function */
/* frame size = 0 */
/* stack size = 0 */
.L__stack_usage = 0
.LBB33:
	.loc 1 31 0
	sbiw r24,0
	breq .L1
	ldi r18,0
	ldi r19,0
.LVL1:
.L3:
.LBB34:
.LBB35:
	.file 2 "c:\\program files (x86)\\atmel\\studio\\7.0\\toolchain\\avr8\\avr8-gnu-toolchain\\avr\\include\\util\\delay.h"
	.loc 2 187 0
	ldi r30,lo8(3999)
	ldi r31,hi8(3999)
1:	sbiw r30,1
	brne 1b
	rjmp .
	nop
.LVL2:
.LBE35:
.LBE34:
	.loc 1 31 0
	subi r18,-1
	sbci r19,-1
.LVL3:
	cp r24,r18
	cpc r25,r19
	brne .L3
.LVL4:
.L1:
	ret
.LBE33:
	.cfi_endproc
.LFE11:
	.size	delay_ms, .-delay_ms
	.section	.text.Enable,"ax",@progbits
.global	Enable
	.type	Enable, @function
Enable:
.LFB12:
	.loc 1 39 0
	.cfi_startproc
/* prologue: function */
/* frame size = 0 */
/* stack size = 0 */
.L__stack_usage = 0
	.loc 1 40 0
	sbi 0x11,1
	.loc 1 41 0
	cbi 0x11,1
	ret
	.cfi_endproc
.LFE12:
	.size	Enable, .-Enable
	.section	.text.LCD_init,"ax",@progbits
.global	LCD_init
	.type	LCD_init, @function
LCD_init:
.LFB13:
	.loc 1 49 0
	.cfi_startproc
/* prologue: function */
/* frame size = 0 */
/* stack size = 0 */
.L__stack_usage = 0
	.loc 1 54 0
	ldi r24,lo8(50)
	ldi r25,0
	call delay_ms
.LVL5:
	.loc 1 55 0
	cbi 0x11,1
	.loc 1 56 0
	cbi 0x5,0
	.loc 1 61 0
	in r24,0x11
	.loc 1 61 0
	andi r24,lo8(63)
	out 0x11,r24
	.loc 1 62 0
	in r24,0x11
	.loc 1 62 0
	ori r24,lo8(48)
	out 0x11,r24
	.loc 1 63 0
	call Enable
.LVL6:
.LBB36:
.LBB37:
	.loc 2 187 0
	ldi r24,lo8(-25537)
	ldi r25,hi8(-25537)
1:	sbiw r24,1
	brne 1b
	rjmp .
	nop
.LVL7:
.LBE37:
.LBE36:
	.loc 1 67 0
	in r24,0x11
	.loc 1 67 0
	andi r24,lo8(63)
	out 0x11,r24
	.loc 1 68 0
	in r24,0x11
	.loc 1 68 0
	ori r24,lo8(48)
	out 0x11,r24
	.loc 1 69 0
	call Enable
.LVL8:
.LBB38:
.LBB39:
	.loc 2 187 0
	ldi r24,lo8(-25537)
	ldi r25,hi8(-25537)
1:	sbiw r24,1
	brne 1b
	rjmp .
	nop
.LVL9:
.LBE39:
.LBE38:
	.loc 1 73 0
	in r24,0x11
	.loc 1 73 0
	andi r24,lo8(63)
	out 0x11,r24
	.loc 1 74 0
	in r24,0x11
	.loc 1 74 0
	ori r24,lo8(48)
	out 0x11,r24
	.loc 1 75 0
	call Enable
.LVL10:
.LBB40:
.LBB41:
	.loc 2 187 0
	ldi r24,lo8(-25537)
	ldi r25,hi8(-25537)
1:	sbiw r24,1
	brne 1b
	rjmp .
	nop
.LVL11:
.LBE41:
.LBE40:
	.loc 1 79 0
	in r24,0x11
	.loc 1 79 0
	andi r24,lo8(47)
	out 0x11,r24
	.loc 1 80 0
	sbi 0x11,5
	.loc 1 81 0
	call Enable
.LVL12:
.LBB42:
.LBB43:
	.loc 2 187 0
	ldi r24,lo8(-25537)
	ldi r25,hi8(-25537)
1:	sbiw r24,1
	brne 1b
	rjmp .
	nop
.LVL13:
.LBE43:
.LBE42:
	.loc 1 87 0
	in r24,0x11
	.loc 1 87 0
	andi r24,lo8(47)
	out 0x11,r24
	.loc 1 88 0
	sbi 0x11,5
	.loc 1 89 0
	call Enable
.LVL14:
.LBB44:
.LBB45:
	.loc 2 187 0
	ldi r24,lo8(-25537)
	ldi r25,hi8(-25537)
1:	sbiw r24,1
	brne 1b
	rjmp .
	nop
.LVL15:
.LBE45:
.LBE44:
	.loc 1 93 0
	sbi 0x11,7
	.loc 1 94 0
	in r24,0x11
	.loc 1 94 0
	andi r24,lo8(-113)
	out 0x11,r24
	.loc 1 95 0
	call Enable
.LVL16:
.LBB46:
.LBB47:
	.loc 2 187 0
	ldi r24,lo8(-25537)
	ldi r25,hi8(-25537)
1:	sbiw r24,1
	brne 1b
	rjmp .
	nop
.LVL17:
.LBE47:
.LBE46:
	.loc 1 100 0
	in r24,0x11
	.loc 1 100 0
	andi r24,lo8(15)
	out 0x11,r24
	.loc 1 101 0
	call Enable
.LVL18:
.LBB48:
.LBB49:
	.loc 2 187 0
	ldi r24,lo8(-25537)
	ldi r25,hi8(-25537)
1:	sbiw r24,1
	brne 1b
	rjmp .
	nop
.LVL19:
.LBE49:
.LBE48:
	.loc 1 105 0
	sbi 0x11,7
	.loc 1 106 0
	in r24,0x11
	.loc 1 106 0
	andi r24,lo8(-113)
	out 0x11,r24
	.loc 1 107 0
	call Enable
.LVL20:
.LBB50:
.LBB51:
	.loc 2 187 0
	ldi r24,lo8(-25537)
	ldi r25,hi8(-25537)
1:	sbiw r24,1
	brne 1b
	rjmp .
	nop
.LVL21:
.LBE51:
.LBE50:
	.loc 1 112 0
	in r24,0x11
	.loc 1 112 0
	andi r24,lo8(15)
	out 0x11,r24
	.loc 1 113 0
	call Enable
.LVL22:
.LBB52:
.LBB53:
	.loc 2 187 0
	ldi r24,lo8(-25537)
	ldi r25,hi8(-25537)
1:	sbiw r24,1
	brne 1b
	rjmp .
	nop
.LVL23:
.LBE53:
.LBE52:
	.loc 1 117 0
	in r24,0x11
	.loc 1 117 0
	andi r24,lo8(31)
	out 0x11,r24
	.loc 1 118 0
	sbi 0x11,4
	.loc 1 119 0
	call Enable
.LVL24:
.LBB54:
.LBB55:
	.loc 2 187 0
	ldi r24,lo8(-25537)
	ldi r25,hi8(-25537)
1:	sbiw r24,1
	brne 1b
	rjmp .
	nop
.LVL25:
.LBE55:
.LBE54:
	.loc 1 124 0
	in r24,0x11
	.loc 1 124 0
	andi r24,lo8(15)
	out 0x11,r24
	.loc 1 125 0
	call Enable
.LVL26:
.LBB56:
.LBB57:
	.loc 2 187 0
	ldi r24,lo8(-25537)
	ldi r25,hi8(-25537)
1:	sbiw r24,1
	brne 1b
	rjmp .
	nop
.LVL27:
.LBE57:
.LBE56:
	.loc 1 129 0
	in r24,0x11
	.loc 1 129 0
	andi r24,lo8(63)
	out 0x11,r24
	.loc 1 130 0
	in r24,0x11
	.loc 1 130 0
	ori r24,lo8(48)
	out 0x11,r24
	.loc 1 131 0
	call Enable
.LVL28:
.LBB58:
.LBB59:
	.loc 2 187 0
	ldi r24,lo8(-25537)
	ldi r25,hi8(-25537)
1:	sbiw r24,1
	brne 1b
	rjmp .
	nop
.LVL29:
.LBE59:
.LBE58:
	.loc 1 136 0
	in r24,0x11
	.loc 1 136 0
	andi r24,lo8(15)
	out 0x11,r24
	.loc 1 137 0
	call Enable
.LVL30:
.LBB60:
.LBB61:
	.loc 2 187 0
	ldi r24,lo8(-25537)
	ldi r25,hi8(-25537)
1:	sbiw r24,1
	brne 1b
	rjmp .
	nop
.LVL31:
.LBE61:
.LBE60:
	.loc 1 141 0
	in r24,0x11
	.loc 1 141 0
	ori r24,lo8(-16)
	out 0x11,r24
	.loc 1 142 0
	call Enable
.LVL32:
.LBB62:
.LBB63:
	.loc 2 187 0
	ldi r24,lo8(-25537)
	ldi r25,hi8(-25537)
1:	sbiw r24,1
	brne 1b
	rjmp .
	nop
.LVL33:
	ret
.LBE63:
.LBE62:
	.cfi_endproc
.LFE13:
	.size	LCD_init, .-LCD_init
	.section	.text.LCD_send,"ax",@progbits
.global	LCD_send
	.type	LCD_send, @function
LCD_send:
.LFB14:
	.loc 1 154 0
	.cfi_startproc
.LVL34:
	push r28
.LCFI0:
	.cfi_def_cfa_offset 3
	.cfi_offset 28, -2
/* prologue: function */
/* frame size = 0 */
/* stack size = 1 */
.L__stack_usage = 1
	mov r28,r24
.LVL35:
	.loc 1 157 0
	sbi 0x5,0
	.loc 1 160 0
	tst r24
	brge .L8
	.loc 1 160 0 discriminator 1
	sbi 0x11,7
	rjmp .L9
.L8:
	.loc 1 161 0
	cbi 0x11,7
.L9:
	.loc 1 163 0
	sbrs r28,6
	rjmp .L10
	.loc 1 163 0 discriminator 1
	sbi 0x11,6
	rjmp .L11
.L10:
	.loc 1 164 0
	cbi 0x11,6
.L11:
	.loc 1 166 0
	sbrs r28,5
	rjmp .L12
	.loc 1 166 0 discriminator 1
	sbi 0x11,5
	rjmp .L13
.L12:
	.loc 1 167 0
	cbi 0x11,5
.L13:
	.loc 1 169 0
	sbrs r28,4
	rjmp .L14
	.loc 1 169 0 discriminator 1
	sbi 0x11,4
	rjmp .L15
.L14:
	.loc 1 170 0
	cbi 0x11,4
.L15:
	.loc 1 172 0
	call Enable
.LVL36:
	.loc 1 173 0
	ldi r24,lo8(1)
	ldi r25,0
	call delay_ms
.LVL37:
	.loc 1 176 0
	sbrs r28,3
	rjmp .L16
	.loc 1 176 0 discriminator 1
	sbi 0x11,7
	rjmp .L17
.L16:
	.loc 1 177 0
	cbi 0x11,7
.L17:
	.loc 1 179 0
	sbrs r28,2
	rjmp .L18
	.loc 1 179 0 discriminator 1
	sbi 0x11,6
	rjmp .L19
.L18:
	.loc 1 180 0
	cbi 0x11,6
.L19:
	.loc 1 182 0
	sbrs r28,1
	rjmp .L20
	.loc 1 182 0 discriminator 1
	sbi 0x11,5
	rjmp .L21
.L20:
	.loc 1 183 0
	cbi 0x11,5
.L21:
	.loc 1 185 0
	sbrs r28,0
	rjmp .L22
	.loc 1 185 0 discriminator 1
	sbi 0x11,4
	rjmp .L23
.L22:
	.loc 1 186 0
	cbi 0x11,4
.L23:
	.loc 1 188 0
	call Enable
.LVL38:
	.loc 1 189 0
	ldi r24,lo8(1)
	ldi r25,0
	call delay_ms
.LVL39:
/* epilogue start */
	.loc 1 191 0
	pop r28
.LVL40:
	ret
	.cfi_endproc
.LFE14:
	.size	LCD_send, .-LCD_send
	.section	.text.LCD_cmd,"ax",@progbits
.global	LCD_cmd
	.type	LCD_cmd, @function
LCD_cmd:
.LFB15:
	.loc 1 200 0
	.cfi_startproc
.LVL41:
	push r28
.LCFI1:
	.cfi_def_cfa_offset 3
	.cfi_offset 28, -2
/* prologue: function */
/* frame size = 0 */
/* stack size = 1 */
.L__stack_usage = 1
	mov r28,r24
.LVL42:
	.loc 1 203 0
	cbi 0x5,0
	.loc 1 206 0
	tst r24
	brge .L25
	.loc 1 206 0 discriminator 1
	sbi 0x11,7
	rjmp .L26
.L25:
	.loc 1 207 0
	cbi 0x11,7
.L26:
	.loc 1 209 0
	sbrs r28,6
	rjmp .L27
	.loc 1 209 0 discriminator 1
	sbi 0x11,6
	rjmp .L28
.L27:
	.loc 1 210 0
	cbi 0x11,6
.L28:
	.loc 1 212 0
	sbrs r28,5
	rjmp .L29
	.loc 1 212 0 discriminator 1
	sbi 0x11,5
	rjmp .L30
.L29:
	.loc 1 213 0
	cbi 0x11,5
.L30:
	.loc 1 215 0
	sbrs r28,4
	rjmp .L31
	.loc 1 215 0 discriminator 1
	sbi 0x11,4
	rjmp .L32
.L31:
	.loc 1 216 0
	cbi 0x11,4
.L32:
	.loc 1 218 0
	call Enable
.LVL43:
	.loc 1 219 0
	ldi r24,lo8(1)
	ldi r25,0
	call delay_ms
.LVL44:
	.loc 1 222 0
	sbrs r28,3
	rjmp .L33
	.loc 1 222 0 discriminator 1
	sbi 0x11,7
	rjmp .L34
.L33:
	.loc 1 223 0
	cbi 0x11,7
.L34:
	.loc 1 225 0
	sbrs r28,2
	rjmp .L35
	.loc 1 225 0 discriminator 1
	sbi 0x11,6
	rjmp .L36
.L35:
	.loc 1 226 0
	cbi 0x11,6
.L36:
	.loc 1 228 0
	sbrs r28,1
	rjmp .L37
	.loc 1 228 0 discriminator 1
	sbi 0x11,5
	rjmp .L38
.L37:
	.loc 1 229 0
	cbi 0x11,5
.L38:
	.loc 1 231 0
	sbrs r28,0
	rjmp .L39
	.loc 1 231 0 discriminator 1
	sbi 0x11,4
	rjmp .L40
.L39:
	.loc 1 232 0
	cbi 0x11,4
.L40:
	.loc 1 234 0
	call Enable
.LVL45:
	.loc 1 235 0
	ldi r24,lo8(1)
	ldi r25,0
	call delay_ms
.LVL46:
/* epilogue start */
	.loc 1 237 0
	pop r28
.LVL47:
	ret
	.cfi_endproc
.LFE15:
	.size	LCD_cmd, .-LCD_cmd
	.section	.text.LCD_string,"ax",@progbits
.global	LCD_string
	.type	LCD_string, @function
LCD_string:
.LFB16:
	.loc 1 246 0
	.cfi_startproc
.LVL48:
	push r28
.LCFI2:
	.cfi_def_cfa_offset 3
	.cfi_offset 28, -2
	push r29
.LCFI3:
	.cfi_def_cfa_offset 4
	.cfi_offset 29, -3
/* prologue: function */
/* frame size = 0 */
/* stack size = 2 */
.L__stack_usage = 2
	movw r28,r24
	.loc 1 247 0
	ld r24,Y
.LVL49:
	tst r24
	breq .L41
	adiw r28,1
.LVL50:
.L43:
	.loc 1 249 0
	call LCD_send
.LVL51:
	.loc 1 247 0
	ld r24,Y+
.LVL52:
	cpse r24,__zero_reg__
	rjmp .L43
.LVL53:
.L41:
/* epilogue start */
	.loc 1 251 0
	pop r29
	pop r28
	ret
	.cfi_endproc
.LFE16:
	.size	LCD_string, .-LCD_string
	.section	.rodata.str1.1,"aMS",@progbits,1
.LC0:
	.string	"Akku:"
.LC1:
	.string	"%"
.LC2:
	.string	"U/m"
.LC3:
	.string	"km/h"
	.section	.text.LCD_Display,"ax",@progbits
.global	LCD_Display
	.type	LCD_Display, @function
LCD_Display:
.LFB17:
	.loc 1 254 0
	.cfi_startproc
/* prologue: function */
/* frame size = 0 */
/* stack size = 0 */
.L__stack_usage = 0
	.loc 1 255 0
	ldi r24,lo8(-128)
	call LCD_cmd
.LVL54:
	.loc 1 256 0
	ldi r24,lo8(.LC0)
	ldi r25,hi8(.LC0)
	call LCD_string
.LVL55:
	.loc 1 258 0
	ldi r24,lo8(-61)
	call LCD_cmd
.LVL56:
	.loc 1 259 0
	ldi r24,lo8(.LC1)
	ldi r25,hi8(.LC1)
	call LCD_string
.LVL57:
	.loc 1 266 0
	ldi r24,lo8(-113)
	call LCD_cmd
.LVL58:
	.loc 1 267 0
	ldi r24,lo8(.LC2)
	ldi r25,hi8(.LC2)
	call LCD_string
.LVL59:
	.loc 1 274 0
	ldi r24,lo8(-49)
	call LCD_cmd
.LVL60:
	.loc 1 275 0
	ldi r24,lo8(.LC3)
	ldi r25,hi8(.LC3)
	call LCD_string
.LVL61:
	ret
	.cfi_endproc
.LFE17:
	.size	LCD_Display, .-LCD_Display
	.text
.Letext0:
	.file 3 "c:\\program files (x86)\\atmel\\studio\\7.0\\toolchain\\avr8\\avr8-gnu-toolchain\\avr\\include\\stdint.h"