	.file	"motoransteuerung.c"
__SP_H__ = 0x3e
__SP_L__ = 0x3d
__SREG__ = 0x3f
__tmp_reg__ = 0
__zero_reg__ = 1
	.text
.Ltext0:
	.cfi_sections	.debug_frame
	.section	.text.Init_PWM,"ax",@progbits
.global	Init_PWM
	.type	Init_PWM, @function
Init_PWM:
.LFB11:
	.file 1 ".././motoransteuerung.c"
	.loc 1 49 0
	.cfi_startproc
	push r28
.LCFI0:
	.cfi_def_cfa_offset 3
	.cfi_offset 28, -2
	push r29
.LCFI1:
	.cfi_def_cfa_offset 4
	.cfi_offset 29, -3
/* prologue: function */
/* frame size = 0 */
/* stack size = 2 */
.L__stack_usage = 2
	.loc 1 51 0
	ldi r30,lo8(-63)
	ldi r31,0
	ld r24,Z
	.loc 1 51 0
	andi r24,lo8(-2)
	st Z,r24
	.loc 1 52 0
	ld r24,Z
	.loc 1 52 0
	andi r24,lo8(-3)
	st Z,r24
	.loc 1 53 0
	ld r24,Z
	.loc 1 53 0
	ori r24,lo8(4)
	st Z,r24
	.loc 1 54 0
	ld r24,Z
	.loc 1 54 0
	andi r24,lo8(-9)
	st Z,r24
	.loc 1 56 0
	ldi r26,lo8(-64)
	ldi r27,0
	ld r24,X
	.loc 1 56 0
	ori r24,lo8(2)
	st X,r24
	.loc 1 57 0
	ldi r28,lo8(-61)
	ldi r29,0
	ld r24,Y
	.loc 1 57 0
	andi r24,lo8(-2)
	st Y,r24
	.loc 1 58 0
	ld r24,Y
	.loc 1 58 0
	ori r24,lo8(2)
	st Y,r24
	.loc 1 60 0
	ld r24,X
	.loc 1 60 0
	ori r24,lo8(64)
	st X,r24
	.loc 1 61 0
	ld r24,X
	.loc 1 61 0
	andi r24,lo8(127)
	st X,r24
	.loc 1 63 0
	ld r24,X
	.loc 1 63 0
	ori r24,lo8(16)
	st X,r24
	.loc 1 64 0
	ld r24,X
	.loc 1 64 0
	andi r24,lo8(-33)
	st X,r24
	.loc 1 65 0
	ldi r26,lo8(-62)
	ldi r27,0
	ld r24,X
	.loc 1 65 0
	ori r24,lo8(4)
	st X,r24
	.loc 1 66 0
	ld r24,X
	.loc 1 66 0
	andi r24,lo8(-9)
	st X,r24
	.loc 1 68 0
	ld r24,Z
	.loc 1 68 0
	andi r24,lo8(-17)
	st Z,r24
	.loc 1 69 0
	ld r24,Z
	.loc 1 69 0
	andi r24,lo8(-33)
	st Z,r24
	.loc 1 75 0
	ldi r24,lo8(-1)
	sts 209,r24
	.loc 1 77 0
	sts 196,__zero_reg__
	.loc 1 79 0
	sts 212,r24
/* epilogue start */
	.loc 1 81 0
	pop r29
	pop r28
	ret
	.cfi_endproc
.LFE11:
	.size	Init_PWM, .-Init_PWM
	.section	.text.Init_Pinchange,"ax",@progbits
.global	Init_Pinchange
	.type	Init_Pinchange, @function
Init_Pinchange:
.LFB12:
	.loc 1 83 0
	.cfi_startproc
/* prologue: function */
/* frame size = 0 */
/* stack size = 0 */
.L__stack_usage = 0
	.loc 1 84 0
	ldi r30,lo8(104)
	ldi r31,0
	ld r24,Z
	.loc 1 84 0
	andi r24,lo8(-2)
	st Z,r24
	.loc 1 86 0
	ldi r30,lo8(107)
	ldi r31,0
	ld r24,Z
	.loc 1 86 0
	ori r24,lo8(2)
	st Z,r24
	.loc 1 87 0
	ld r24,Z
	.loc 1 87 0
	ori r24,lo8(4)
	st Z,r24
	.loc 1 88 0
	ld r24,Z
	.loc 1 88 0
	ori r24,lo8(8)
	st Z,r24
	.loc 1 89 0
	ld r24,Z
	.loc 1 89 0
	ori r24,lo8(16)
	st Z,r24
	.loc 1 93 0
	ldi r30,lo8(105)
	ldi r31,0
	ld r24,Z
	.loc 1 93 0
	ori r24,lo8(1)
	st Z,r24
	.loc 1 94 0
	ld r24,Z
	.loc 1 94 0
	andi r24,lo8(-3)
	st Z,r24
	.loc 1 96 0
	sbi 0x1d,0
	ret
	.cfi_endproc
.LFE12:
	.size	Init_Pinchange, .-Init_Pinchange
	.section	.text.Init_ADC,"ax",@progbits
.global	Init_ADC
	.type	Init_ADC, @function
Init_ADC:
.LFB13:
	.loc 1 100 0
	.cfi_startproc
/* prologue: function */
/* frame size = 0 */
/* stack size = 0 */
.L__stack_usage = 0
	.loc 1 101 0
	ldi r30,lo8(124)
	ldi r31,0
	ld r24,Z
	.loc 1 101 0
	ori r24,lo8(64)
	st Z,r24
	.loc 1 102 0
	ld r24,Z
	.loc 1 102 0
	andi r24,lo8(127)
	st Z,r24
	.loc 1 104 0
	ld r24,Z
	.loc 1 104 0
	ori r24,lo8(32)
	st Z,r24
	.loc 1 106 0
	ld r24,Z
	.loc 1 106 0
	andi r24,lo8(-2)
	st Z,r24
	.loc 1 107 0
	ld r24,Z
	.loc 1 107 0
	andi r24,lo8(-3)
	st Z,r24
	.loc 1 108 0
	ld r24,Z
	.loc 1 108 0
	andi r24,lo8(-5)
	st Z,r24
	.loc 1 109 0
	ld r24,Z
	.loc 1 109 0
	andi r24,lo8(-9)
	st Z,r24
	.loc 1 110 0
	ld r24,Z
	.loc 1 110 0
	andi r24,lo8(-17)
	st Z,r24
	.loc 1 111 0
	ldi r30,lo8(123)
	ldi r31,0
	ld r24,Z
	.loc 1 111 0
	andi r24,lo8(-33)
	st Z,r24
	.loc 1 113 0
	ldi r30,lo8(122)
	ldi r31,0
	ld r24,Z
	.loc 1 113 0
	ori r24,lo8(-128)
	st Z,r24
	.loc 1 114 0
	ld r24,Z
	.loc 1 114 0
	ori r24,lo8(8)
	st Z,r24
	.loc 1 116 0
	ld r24,Z
	.loc 1 116 0
	andi r24,lo8(-2)
	st Z,r24
	.loc 1 117 0
	ld r24,Z
	.loc 1 117 0
	ori r24,lo8(2)
	st Z,r24
	.loc 1 118 0
	ld r24,Z
	.loc 1 118 0
	ori r24,lo8(4)
	st Z,r24
	.loc 1 120 0
	ld r24,Z
	.loc 1 120 0
	ori r24,lo8(64)
	st Z,r24
	ret
	.cfi_endproc
.LFE13:
	.size	Init_ADC, .-Init_ADC
	.section	.text.Hallsensoren_abfragen,"ax",@progbits
.global	Hallsensoren_abfragen
	.type	Hallsensoren_abfragen, @function
Hallsensoren_abfragen:
.LFB14:
	.loc 1 124 0
	.cfi_startproc
/* prologue: function */
/* frame size = 0 */
/* stack size = 0 */
.L__stack_usage = 0
	.loc 1 125 0
	in r24,0x3
	.loc 1 126 0
	andi r24,lo8(14)
	lsr r24
	sts stufe,r24
	.loc 1 130 0
	call umschalt_null
.LVL0:
	tst r24
	breq .L5
	.loc 1 133 0
	sbic 0x3,4
	rjmp .L6
	.loc 1 135 0
	ldi r24,lo8(1)
	sts vor,r24
	rjmp .L7
.L6:
	.loc 1 139 0
	sts vor,__zero_reg__
	rjmp .L8
.L5:
	.loc 1 144 0
	lds r24,vor
	tst r24
	brne .+2
	rjmp .L8
.L7:
	.loc 1 147 0
	lds r24,stufe
	cpi r24,lo8(3)
	breq .L10
	brsh .L11
	cpi r24,lo8(1)
	breq .L12
	cpi r24,lo8(2)
	breq .L13
	ret
.L11:
	cpi r24,lo8(5)
	breq .L14
	brsh .+2
	rjmp .L15
	cpi r24,lo8(6)
	breq .L16
	ret
.L14:
	.loc 1 151 0
	ldi r30,lo8(-60)
	ldi r31,0
	st Z,__zero_reg__
	.loc 1 152 0
	in r24,0x5
	.loc 1 152 0
	andi r24,lo8(-97)
	out 0x5,r24
	.loc 1 153 0
	in r24,0xb
	.loc 1 153 0
	andi r24,lo8(63)
	ori r24,lo8(64)
	out 0xb,r24
	.loc 1 154 0
	ld r24,Z
	.loc 1 154 0
	ori r24,lo8(3)
	st Z,r24
	.loc 1 155 0
	ret
.L12:
	.loc 1 159 0
	ldi r30,lo8(-60)
	ldi r31,0
	st Z,__zero_reg__
	.loc 1 160 0
	in r24,0x8
	.loc 1 160 0
	andi r24,lo8(63)
	out 0x8,r24
	.loc 1 161 0
	in r24,0xb
	.loc 1 161 0
	andi r24,lo8(63)
	ori r24,lo8(64)
	out 0xb,r24
	.loc 1 162 0
	ld r24,Z
	.loc 1 162 0
	ori r24,lo8(12)
	st Z,r24
	.loc 1 163 0
	ret
.L10:
	.loc 1 167 0
	ldi r30,lo8(-60)
	ldi r31,0
	st Z,__zero_reg__
	.loc 1 168 0
	in r24,0xb
	.loc 1 168 0
	andi r24,lo8(63)
	out 0xb,r24
	.loc 1 169 0
	in r24,0x8
	.loc 1 169 0
	andi r24,lo8(63)
	ori r24,lo8(64)
	out 0x8,r24
	.loc 1 170 0
	ld r24,Z
	.loc 1 170 0
	ori r24,lo8(12)
	st Z,r24
	.loc 1 171 0
	ret
.L13:
	.loc 1 175 0
	ldi r30,lo8(-60)
	ldi r31,0
	st Z,__zero_reg__
	.loc 1 176 0
	in r24,0x5
	.loc 1 176 0
	andi r24,lo8(-97)
	out 0x5,r24
	.loc 1 177 0
	in r24,0x8
	.loc 1 177 0
	andi r24,lo8(63)
	ori r24,lo8(64)
	out 0x8,r24
	.loc 1 178 0
	ld r24,Z
	.loc 1 178 0
	ori r24,lo8(48)
	st Z,r24
	.loc 1 179 0
	ret
.L16:
	.loc 1 183 0
	ldi r30,lo8(-60)
	ldi r31,0
	st Z,__zero_reg__
	.loc 1 184 0
	in r24,0x8
	.loc 1 184 0
	andi r24,lo8(63)
	out 0x8,r24
	.loc 1 185 0
	in r24,0x5
	.loc 1 185 0
	andi r24,lo8(-97)
	ori r24,lo8(32)
	out 0x5,r24
	.loc 1 186 0
	ld r24,Z
	.loc 1 186 0
	ori r24,lo8(48)
	st Z,r24
	.loc 1 187 0
	ret
.L15:
	.loc 1 191 0
	ldi r30,lo8(-60)
	ldi r31,0
	st Z,__zero_reg__
	.loc 1 192 0
	in r24,0xb
	.loc 1 192 0
	andi r24,lo8(63)
	out 0xb,r24
	.loc 1 193 0
	in r24,0x5
	.loc 1 193 0
	andi r24,lo8(-97)
	ori r24,lo8(32)
	out 0x5,r24
	.loc 1 194 0
	ld r24,Z
	.loc 1 194 0
	ori r24,lo8(3)
	st Z,r24
	.loc 1 195 0
	ret
.L8:
	.loc 1 206 0
	lds r24,stufe
	cpi r24,lo8(3)
	breq .L17
	brsh .L18
	cpi r24,lo8(1)
	breq .L19
	cpi r24,lo8(2)
	breq .L20
	ret
.L18:
	cpi r24,lo8(5)
	breq .L21
	brsh .+2
	rjmp .L22
	cpi r24,lo8(6)
	breq .L23
	ret
.L21:
	.loc 1 210 0
	ldi r30,lo8(-60)
	ldi r31,0
	st Z,__zero_reg__
	.loc 1 211 0
	in r24,0x5
	.loc 1 211 0
	andi r24,lo8(-97)
	out 0x5,r24
	.loc 1 212 0
	in r24,0x8
	.loc 1 212 0
	andi r24,lo8(63)
	ori r24,lo8(64)
	out 0x8,r24
	.loc 1 213 0
	ld r24,Z
	.loc 1 213 0
	ori r24,lo8(48)
	st Z,r24
	.loc 1 214 0
	ret
.L19:
	.loc 1 218 0
	ldi r30,lo8(-60)
	ldi r31,0
	st Z,__zero_reg__
	.loc 1 219 0
	in r24,0x8
	.loc 1 219 0
	andi r24,lo8(63)
	out 0x8,r24
	.loc 1 220 0
	in r24,0x5
	.loc 1 220 0
	andi r24,lo8(-97)
	ori r24,lo8(32)
	out 0x5,r24
	.loc 1 221 0
	ld r24,Z
	.loc 1 221 0
	ori r24,lo8(48)
	st Z,r24
	.loc 1 222 0
	ret
.L17:
	.loc 1 226 0
	ldi r30,lo8(-60)
	ldi r31,0
	st Z,__zero_reg__
	.loc 1 227 0
	in r24,0xb
	.loc 1 227 0
	andi r24,lo8(63)
	out 0xb,r24
	.loc 1 228 0
	in r24,0x5
	.loc 1 228 0
	andi r24,lo8(-97)
	ori r24,lo8(32)
	out 0x5,r24
	.loc 1 229 0
	ld r24,Z
	.loc 1 229 0
	ori r24,lo8(3)
	st Z,r24
	.loc 1 230 0
	ret
.L20:
	.loc 1 234 0
	ldi r30,lo8(-60)
	ldi r31,0
	st Z,__zero_reg__
	.loc 1 235 0
	in r24,0x5
	.loc 1 235 0
	andi r24,lo8(-97)
	out 0x5,r24
	.loc 1 236 0
	in r24,0xb
	.loc 1 236 0
	andi r24,lo8(63)
	ori r24,lo8(64)
	out 0xb,r24
	.loc 1 237 0
	ld r24,Z
	.loc 1 237 0
	ori r24,lo8(3)
	st Z,r24
	.loc 1 238 0
	ret
.L23:
	.loc 1 242 0
	ldi r30,lo8(-60)
	ldi r31,0
	st Z,__zero_reg__
	.loc 1 243 0
	in r24,0x8
	.loc 1 243 0
	andi r24,lo8(63)
	out 0x8,r24
	.loc 1 244 0
	in r24,0xb
	.loc 1 244 0
	andi r24,lo8(63)
	ori r24,lo8(64)
	out 0xb,r24
	.loc 1 245 0
	ld r24,Z
	.loc 1 245 0
	ori r24,lo8(12)
	st Z,r24
	.loc 1 246 0
	ret
.L22:
	.loc 1 250 0
	ldi r30,lo8(-60)
	ldi r31,0
	st Z,__zero_reg__
	.loc 1 251 0
	in r24,0xb
	.loc 1 251 0
	andi r24,lo8(63)
	out 0xb,r24
	.loc 1 252 0
	in r24,0x8
	.loc 1 252 0
	andi r24,lo8(63)
	ori r24,lo8(64)
	out 0x8,r24
	.loc 1 253 0
	ld r24,Z
	.loc 1 253 0
	ori r24,lo8(12)
	st Z,r24
	ret
	.cfi_endproc
.LFE14:
	.size	Hallsensoren_abfragen, .-Hallsensoren_abfragen
	.section	.text.adc_abfrage,"ax",@progbits
.global	adc_abfrage
	.type	adc_abfrage, @function
adc_abfrage:
.LFB15:
	.loc 1 264 0
	.cfi_startproc
/* prologue: function */
/* frame size = 0 */
/* stack size = 0 */
.L__stack_usage = 0
	.loc 1 266 0
	lds r24,adc_high
	ret
	.cfi_endproc
.LFE15:
	.size	adc_abfrage, .-adc_abfrage
.global	__gesf2
	.section	.text.__vector_9,"ax",@progbits
.global	__vector_9
	.type	__vector_9, @function
__vector_9:
.LFB16:
	.loc 1 269 0
	.cfi_startproc
	push r1
.LCFI2:
	.cfi_def_cfa_offset 3
	.cfi_offset 1, -2
	push r0
.LCFI3:
	.cfi_def_cfa_offset 4
	.cfi_offset 0, -3
	in r0,__SREG__
	push r0
	clr __zero_reg__
	push r18
.LCFI4:
	.cfi_def_cfa_offset 5
	.cfi_offset 18, -4
	push r19
.LCFI5:
	.cfi_def_cfa_offset 6
	.cfi_offset 19, -5
	push r20
.LCFI6:
	.cfi_def_cfa_offset 7
	.cfi_offset 20, -6
	push r21
.LCFI7:
	.cfi_def_cfa_offset 8
	.cfi_offset 21, -7
	push r22
.LCFI8:
	.cfi_def_cfa_offset 9
	.cfi_offset 22, -8
	push r23
.LCFI9:
	.cfi_def_cfa_offset 10
	.cfi_offset 23, -9
	push r24
.LCFI10:
	.cfi_def_cfa_offset 11
	.cfi_offset 24, -10
	push r25
.LCFI11:
	.cfi_def_cfa_offset 12
	.cfi_offset 25, -11
	push r26
.LCFI12:
	.cfi_def_cfa_offset 13
	.cfi_offset 26, -12
	push r27
.LCFI13:
	.cfi_def_cfa_offset 14
	.cfi_offset 27, -13
	push r30
.LCFI14:
	.cfi_def_cfa_offset 15
	.cfi_offset 30, -14
	push r31
.LCFI15:
	.cfi_def_cfa_offset 16
	.cfi_offset 31, -15
/* prologue: Signal */
/* frame size = 0 */
/* stack size = 15 */
.L__stack_usage = 15
	.loc 1 270 0
	call geschwindigkeit_auslesen
.LVL1:
	.loc 1 272 0
	call Hallsensoren_abfragen
.LVL2:
	.loc 1 274 0
	call drehzahl_berechnung
.LVL3:
	.loc 1 276 0
	call drehzahl_holen
.LVL4:
	ldi r18,0
	ldi r19,lo8(32)
	ldi r20,lo8(-6)
	ldi r21,lo8(68)
	call __gesf2
.LVL5:
	tst r24
	brlt .L25
	.loc 1 278 0
	lds r24,adc_high
	call geschwindigkeits_regulierung
.LVL6:
	sts 207,r24
.L25:
/* epilogue start */
	.loc 1 283 0
	pop r31
	pop r30
	pop r27
	pop r26
	pop r25
	pop r24
	pop r23
	pop r22
	pop r21
	pop r20
	pop r19
	pop r18
	pop r0
	out __SREG__,r0
	pop r0
	pop r1
	reti
	.cfi_endproc
.LFE16:
	.size	__vector_9, .-__vector_9
.global	__lesf2
	.section	.text.__vector_29,"ax",@progbits
.global	__vector_29
	.type	__vector_29, @function
__vector_29:
.LFB17:
	.loc 1 300 0
	.cfi_startproc
	push r1
.LCFI16:
	.cfi_def_cfa_offset 3
	.cfi_offset 1, -2
	push r0
.LCFI17:
	.cfi_def_cfa_offset 4
	.cfi_offset 0, -3
	in r0,__SREG__
	push r0
	clr __zero_reg__
	push r18
.LCFI18:
	.cfi_def_cfa_offset 5
	.cfi_offset 18, -4
	push r19
.LCFI19:
	.cfi_def_cfa_offset 6
	.cfi_offset 19, -5
	push r20
.LCFI20:
	.cfi_def_cfa_offset 7
	.cfi_offset 20, -6
	push r21
.LCFI21:
	.cfi_def_cfa_offset 8
	.cfi_offset 21, -7
	push r22
.LCFI22:
	.cfi_def_cfa_offset 9
	.cfi_offset 22, -8
	push r23
.LCFI23:
	.cfi_def_cfa_offset 10
	.cfi_offset 23, -9
	push r24
.LCFI24:
	.cfi_def_cfa_offset 11
	.cfi_offset 24, -10
	push r25
.LCFI25:
	.cfi_def_cfa_offset 12
	.cfi_offset 25, -11
	push r26
.LCFI26:
	.cfi_def_cfa_offset 13
	.cfi_offset 26, -12
	push r27
.LCFI27:
	.cfi_def_cfa_offset 14
	.cfi_offset 27, -13
	push r30
.LCFI28:
	.cfi_def_cfa_offset 15
	.cfi_offset 30, -14
	push r31
.LCFI29:
	.cfi_def_cfa_offset 16
	.cfi_offset 31, -15
/* prologue: Signal */
/* frame size = 0 */
/* stack size = 15 */
.L__stack_usage = 15
	.loc 1 303 0
	lds r24,120
	sts adc_low,r24
	.loc 1 304 0
	lds r24,121
	sts adc_high,r24
	.loc 1 306 0
	call ext_int_kommunikation_abfrage
.LVL7:
	.loc 1 308 0
	tst r24
	breq .L30
	.loc 1 310 0
	sts adc_high,__zero_reg__
	rjmp .L31
.L30:
	.loc 1 315 0
	lds r24,adc_high
.LVL8:
	cpse r24,__zero_reg__
	rjmp .L32
.L31:
	.loc 1 315 0 is_stmt 0 discriminator 1
	lds r24,phasen_flag
	cpse r24,__zero_reg__
	rjmp .L33
	.loc 1 317 0 is_stmt 1
	ldi r24,lo8(1)
	sts adc_0_flag,r24
	.loc 1 318 0
	sts phasen_flag,r24
	rjmp .L33
.L37:
	.loc 1 323 0
	ldi r24,lo8(2)
	sts phasen_flag,r24
	.loc 1 325 0
	sbi 0xb,4
	.loc 1 327 0
	ldi r30,lo8(104)
	ldi r31,0
	ld r24,Z
	.loc 1 327 0
	ori r24,lo8(1)
	st Z,r24
.L38:
	.loc 1 332 0
	lds r24,phasen_flag
	cpi r24,lo8(2)
	brne .L34
	.loc 1 334 0
	call drehzahl_holen
.LVL9:
	ldi r18,0
	ldi r19,0
	ldi r20,lo8(-6)
	ldi r21,lo8(68)
	call __lesf2
.LVL10:
	cp __zero_reg__,r24
	brlt .L35
	.loc 1 337 0
	lds r24,adc_high
	call geschwindigkeits_regulierung
.LVL11:
	sts 207,r24
	rjmp .L35
.L34:
	.loc 1 344 0
	sts 207,__zero_reg__
.L35:
	.loc 1 376 0
	ldi r30,lo8(122)
	ldi r31,0
	ld r24,Z
	.loc 1 376 0
	ori r24,lo8(64)
	st Z,r24
	.loc 1 377 0
	rjmp .L40
.L32:
	.loc 1 321 0
	lds r24,phasen_flag
	cpi r24,lo8(1)
	brne .L38
	rjmp .L37
.L33:
	lds r24,phasen_flag
	rjmp .L38
.L40:
/* epilogue start */
	.loc 1 377 0
	pop r31
	pop r30
	pop r27
	pop r26
	pop r25
	pop r24
	pop r23
	pop r22
	pop r21
	pop r20
	pop r19
	pop r18
	pop r0
	out __SREG__,r0
	pop r0
	pop r1
	reti
	.cfi_endproc
.LFE17:
	.size	__vector_29, .-__vector_29
.global	phasen_flag
	.section	.bss.phasen_flag,"aw",@nobits
	.type	phasen_flag, @object
	.size	phasen_flag, 1
phasen_flag:
	.zero	1
.global	adc_0_flag
	.section	.bss.adc_0_flag,"aw",@nobits
	.type	adc_0_flag, @object
	.size	adc_0_flag, 1
adc_0_flag:
	.zero	1
	.comm	hilfe,1,1
.global	adc_counter
	.section	.bss.adc_counter,"aw",@nobits
	.type	adc_counter, @object
	.size	adc_counter, 1
adc_counter:
	.zero	1
.global	current_adc_wert
	.section	.bss.current_adc_wert,"aw",@nobits
	.type	current_adc_wert, @object
	.size	current_adc_wert, 1
current_adc_wert:
	.zero	1
	.comm	adc_high,1,1
	.comm	adc_low,1,1
.global	vor
	.section	.data.vor,"aw",@progbits
	.type	vor, @object
	.size	vor, 1
vor:
	.byte	1
.global	richtung
	.section	.data.richtung,"aw",@progbits
	.type	richtung, @object
	.size	richtung, 1
richtung:
	.byte	1
	.comm	stufe,1,1
	.text
.Letext0:
	.file 2 ".././berechnung.h"
	.file 3 ".././datenverarbeitung.h"
	.file 4 ".././kommunikation.h"
	.file 5 "c:\\program files (x86)\\atmel\\studio\\7.0\\toolchain\\avr8\\avr8-gnu-toolchain\\avr\\include\\stdint.h"